target datalayout = "e-m:e-p270:32:32-p271:32:32-p272:64:64-i64:64-i128:128-f80:128-n8:16:32:64-S128"
target triple = "x86_64-unknown-linux-gnu"

%"class.std::__cxx11::basic_string" = type { %"struct.std::__cxx11::basic_string<char>::_Alloc_hider", i64, %union.anon }
%"struct.std::__cxx11::basic_string<char>::_Alloc_hider" = type { ptr }
%union.anon = type { i64, [8 x i8] }
%"class.Assimp::FBX::Connection" = type { i64, %"class.std::__cxx11::basic_string", i64, i64, ptr }

; Function Attrs: mustprogress uwtable
define hidden void @_ZN6Assimp3FBX10ConnectionC2EmmmRKNSt7__cxx1112basic_stringIcSt11char_traitsIcESaIcEEERKNS0_8DocumentE(ptr noundef nonnull align 8 dereferenceable(64) %this, i64 noundef %insertionOrder, i64 noundef %src, i64 noundef %dest, ptr noundef nonnull align 8 dereferenceable(32) %prop, ptr noundef nonnull align 8 dereferenceable(336) %doc) unnamed_addr #2 align 2 {
entry:
  %this.addr = alloca ptr, align 8
  %insertionOrder.addr = alloca i64, align 8
  %src.addr = alloca i64, align 8
  %dest.addr = alloca i64, align 8
  %prop.addr = alloca ptr, align 8
  %doc.addr = alloca ptr, align 8
  store ptr %this, ptr %this.addr, align 8
  store i64 %insertionOrder, ptr %insertionOrder.addr, align 8
  store i64 %src, ptr %src.addr, align 8
  store i64 %dest, ptr %dest.addr, align 8
  store ptr %prop, ptr %prop.addr, align 8
  store ptr %doc, ptr %doc.addr, align 8
  %this1 = load ptr, ptr %this.addr, align 8
  %insertionOrder2 = getelementptr inbounds %"class.Assimp::FBX::Connection", ptr %this1, i32 0, i32 0
  %0 = load i64, ptr %insertionOrder.addr, align 8
  store i64 %0, ptr %insertionOrder2, align 8
  %prop3 = getelementptr inbounds %"class.Assimp::FBX::Connection", ptr %this1, i32 0, i32 1
  %1 = load ptr, ptr %prop.addr, align 8
  call void @_ZNSt7__cxx1112basic_stringIcSt11char_traitsIcESaIcEEC1ERKS4_(ptr noundef nonnull align 8 dereferenceable(32) %prop3, ptr noundef nonnull align 8 dereferenceable(32) %1)
  %src4 = getelementptr inbounds %"class.Assimp::FBX::Connection", ptr %this1, i32 0, i32 2
  %2 = load i64, ptr %src.addr, align 8
  store i64 %2, ptr %src4, align 8
  %dest5 = getelementptr inbounds %"class.Assimp::FBX::Connection", ptr %this1, i32 0, i32 3
  %3 = load i64, ptr %dest.addr, align 8
  store i64 %3, ptr %dest5, align 8
  %doc6 = getelementptr inbounds %"class.Assimp::FBX::Connection", ptr %this1, i32 0, i32 4
  %4 = load ptr, ptr %doc.addr, align 8
  store ptr %4, ptr %doc6, align 8
  ret void
}