; Function Attrs: mustprogress uwtable
define hidden void @_ZN6Assimp3FBX10ConnectionC2EmmmRKNSt7__cxx1112basic_stringIcSt11char_traitsIcESaIcEEERKNS0_8DocumentE(ptr noundef nonnull align 8 dereferenceable(64) %this, i64 noundef %insertionOrder, i64 noundef %src, i64 noundef %dest, ptr noundef nonnull align 8 dereferenceable(32) %prop, ptr noundef nonnull align 8 dereferenceable(336) %doc) unnamed_addr #1 align 2 {
entry:
  store i64 %insertionOrder, ptr %this, align 8
  %prop3 = getelementptr inbounds i8, ptr %this, i64 8
  tail call void @_ZNSt7__cxx1112basic_stringIcSt11char_traitsIcESaIcEEC1ERKS4_(ptr noundef nonnull align 8 dereferenceable(32) %prop3, ptr noundef nonnull align 8 dereferenceable(32) %prop)
  %src4 = getelementptr inbounds i8, ptr %this, i64 40
  store i64 %src, ptr %src4, align 8
  %dest5 = getelementptr inbounds i8, ptr %this, i64 48
  store i64 %dest, ptr %dest5, align 8
  %doc6 = getelementptr inbounds i8, ptr %this, i64 56
  store ptr %doc, ptr %doc6, align 8
  ret void
}